; Function Attrs: mustprogress nounwind uwtable
define hidden void @_ZN24G1PreConcurrentStartTask21ResetMarkingStateTask7do_workEj(ptr nocapture noundef nonnull readonly align 8 dereferenceable(24) %0, i32 %1) unnamed_addr #0 align 2 {
  %3 = getelementptr inbounds i8, ptr %0, i64 16
  %4 = load ptr, ptr %3, align 8
  %5 = getelementptr inbounds i8, ptr %4, i64 1494
  store volatile i8 0, ptr %5, align 2
  tail call void @_ZN16G1ConcurrentMark25reset_marking_for_restartEv(ptr noundef nonnull align 8 dereferenceable(1849) %4)
  %6 = getelementptr inbounds i8, ptr %4, i64 836
  %7 = load i32, ptr %6, align 4
  %.not.i = icmp eq i32 %7, 0
  br i1 %.not.i, label %._crit_edge.i, label %.lr.ph.i

.lr.ph.i:                                         ; preds = %2
  %8 = getelementptr inbounds i8, ptr %4, i64 848
  %9 = getelementptr inbounds i8, ptr %4, i64 16
  br label %10

10:                                               ; preds = %10, %.lr.ph.i
  %indvars.iv.i = phi i64 [ 0, %.lr.ph.i ], [ %indvars.iv.next.i, %10 ]
  %11 = load ptr, ptr %8, align 8
  %12 = getelementptr inbounds ptr, ptr %11, i64 %indvars.iv.i
  %13 = load ptr, ptr %12, align 8
  %14 = getelementptr inbounds i8, ptr %13, i64 40
  store ptr %9, ptr %14, align 8
  %15 = getelementptr inbounds i8, ptr %13, i64 136
  tail call void @llvm.memset.p0.i64(ptr noundef nonnull align 8 dereferenceable(24) %15, i8 0, i64 24, i1 false)
  %16 = getelementptr inbounds i8, ptr %13, i64 104
  store i32 0, ptr %16, align 8
  %17 = getelementptr inbounds i8, ptr %13, i64 288
  %18 = getelementptr inbounds i8, ptr %13, i64 56
  tail call void @llvm.memset.p0.i64(ptr noundef nonnull align 8 dereferenceable(16) %17, i8 0, i64 16, i1 false)
  tail call void @_ZN22G1RegionMarkStatsCache5resetEv(ptr noundef nonnull align 8 dereferenceable(48) %18) #22
  %indvars.iv.next.i = add nuw nsw i64 %indvars.iv.i, 1
  %19 = load i32, ptr %6, align 4
  %20 = zext i32 %19 to i64
  %21 = icmp ult i64 %indvars.iv.next.i, %20
  br i1 %21, label %10, label %._crit_edge.i, !llvm.loop !22

._crit_edge.i:                                    ; preds = %10, %2
  %22 = getelementptr inbounds i8, ptr %4, i64 8
  %23 = load ptr, ptr %22, align 8
  %24 = getelementptr inbounds i8, ptr %23, i64 504
  %25 = load i64, ptr %24, align 8
  %26 = and i64 %25, 4294967295
  %.not14.i = icmp eq i64 %26, 0
  br i1 %.not14.i, label %_ZN16G1ConcurrentMark5resetEv.exit, label %.lr.ph12.i

.lr.ph12.i:                                       ; preds = %._crit_edge.i
  %27 = getelementptr inbounds i8, ptr %4, i64 1840
  %28 = getelementptr inbounds i8, ptr %4, i64 1824
  br label %29

29:                                               ; preds = %29, %.lr.ph12.i
  %indvars.iv16.i = phi i64 [ 0, %.lr.ph12.i ], [ %indvars.iv.next17.i, %29 ]
  %30 = load ptr, ptr %27, align 8
  %31 = getelementptr inbounds ptr, ptr %30, i64 %indvars.iv16.i
  store volatile ptr null, ptr %31, align 8
  %32 = load ptr, ptr %28, align 8
  %33 = getelementptr inbounds %struct.G1RegionMarkStats, ptr %32, i64 %indvars.iv16.i
  store i64 0, ptr %33, align 8
  %indvars.iv.next17.i = add nuw nsw i64 %indvars.iv16.i, 1
  %exitcond.not.i = icmp eq i64 %indvars.iv.next17.i, %26
  br i1 %exitcond.not.i, label %_ZN16G1ConcurrentMark5resetEv.exit, label %29, !llvm.loop !23

_ZN16G1ConcurrentMark5resetEv.exit:               ; preds = %29, %._crit_edge.i
  %34 = getelementptr inbounds i8, ptr %4, i64 112
  store volatile i64 0, ptr %34, align 8
  ret void
}